   1              		.syntax unified
   2              		.cpu cortex-m3
   3              		.fpu softvfp
   4              		.eabi_attribute 20, 1
   5              		.eabi_attribute 21, 1
   6              		.eabi_attribute 23, 3
   7              		.eabi_attribute 24, 1
   8              		.eabi_attribute 25, 1
   9              		.eabi_attribute 26, 1
  10              		.eabi_attribute 30, 2
  11              		.eabi_attribute 34, 1
  12              		.eabi_attribute 18, 4
  13              		.thumb
  14              		.file	"Hw_Segment.c"
  15              		.text
  16              	.Ltext0:
  17              		.cfi_sections	.debug_frame
  18              		.section	.text.Power_SEG_On,"ax",%progbits
  19              		.align	2
  20              		.global	Power_SEG_On
  21              		.thumb
  22              		.thumb_func
  24              	Power_SEG_On:
  25              	.LFB17:
  26              		.file 1 "../Hw/Hw_Lib/Hw_Segment.c"
   1:../Hw/Hw_Lib/Hw_Segment.c **** #define HW_SEGMENT_LOCAL
   2:../Hw/Hw_Lib/Hw_Segment.c **** 
   3:../Hw/Hw_Lib/Hw_Segment.c **** #include "Hw_Segment.h"
   4:../Hw/Hw_Lib/Hw_Segment.c **** 
   5:../Hw/Hw_Lib/Hw_Segment.c **** 
   6:../Hw/Hw_Lib/Hw_Segment.c **** 
   7:../Hw/Hw_Lib/Hw_Segment.c **** SEG_DEF void Power_SEG_On(void);
   8:../Hw/Hw_Lib/Hw_Segment.c **** SEG_DEF void Power_SEG_Off(void);
   9:../Hw/Hw_Lib/Hw_Segment.c **** SEG_DEF void On_7SEG_OnePin(uint16_t PinNum);
  10:../Hw/Hw_Lib/Hw_Segment.c **** SEG_DEF void Off_7SEG_OnePin(uint16_t PinNum);
  11:../Hw/Hw_Lib/Hw_Segment.c **** SEG_DEF void All_7SEG_On(void);
  12:../Hw/Hw_Lib/Hw_Segment.c **** SEG_DEF void All_7SEG_Off(void);
  13:../Hw/Hw_Lib/Hw_Segment.c **** SEG_DEF void Output_7SEG_Number(unsigned int Num);
  14:../Hw/Hw_Lib/Hw_Segment.c **** SEG_DEF void Seven_SEG_TEST(void);
  15:../Hw/Hw_Lib/Hw_Segment.c **** 
  16:../Hw/Hw_Lib/Hw_Segment.c **** 
  17:../Hw/Hw_Lib/Hw_Segment.c **** SEG_DEF void Power_SEG_On(void)
  18:../Hw/Hw_Lib/Hw_Segment.c **** {
  27              		.loc 1 18 0
  28              		.cfi_startproc
  29              		@ args = 0, pretend = 0, frame = 0
  30              		@ frame_needed = 0, uses_anonymous_args = 0
  31              		@ link register save eliminated.
  19:../Hw/Hw_Lib/Hw_Segment.c ****     GPIO_7_SEG->BRR |= GPIO_7_SEG_POWER_PIN;
  32              		.loc 1 19 0
  33 0000 024A     		ldr	r2, .L2
  34 0002 5369     		ldr	r3, [r2, #20]
  35 0004 43F48073 		orr	r3, r3, #256
  36 0008 5361     		str	r3, [r2, #20]
  37 000a 7047     		bx	lr
  38              	.L3:
  39              		.align	2
  40              	.L2:
  41 000c 00100140 		.word	1073811456
  42              		.cfi_endproc
  43              	.LFE17:
  45              		.section	.text.Power_SEG_Off,"ax",%progbits
  46              		.align	2
  47              		.global	Power_SEG_Off
  48              		.thumb
  49              		.thumb_func
  51              	Power_SEG_Off:
  52              	.LFB18:
  20:../Hw/Hw_Lib/Hw_Segment.c **** }
  21:../Hw/Hw_Lib/Hw_Segment.c **** 
  22:../Hw/Hw_Lib/Hw_Segment.c **** SEG_DEF void Power_SEG_Off(void)
  23:../Hw/Hw_Lib/Hw_Segment.c **** {
  53              		.loc 1 23 0
  54              		.cfi_startproc
  55              		@ args = 0, pretend = 0, frame = 0
  56              		@ frame_needed = 0, uses_anonymous_args = 0
  57              		@ link register save eliminated.
  24:../Hw/Hw_Lib/Hw_Segment.c ****     GPIO_7_SEG->BSRR |= GPIO_7_SEG_POWER_PIN;
  58              		.loc 1 24 0
  59 0000 024A     		ldr	r2, .L5
  60 0002 1369     		ldr	r3, [r2, #16]
  61 0004 43F48073 		orr	r3, r3, #256
  62 0008 1361     		str	r3, [r2, #16]
  63 000a 7047     		bx	lr
  64              	.L6:
  65              		.align	2
  66              	.L5:
  67 000c 00100140 		.word	1073811456
  68              		.cfi_endproc
  69              	.LFE18:
  71              		.section	.text.On_7SEG_OnePin,"ax",%progbits
  72              		.align	2
  73              		.global	On_7SEG_OnePin
  74              		.thumb
  75              		.thumb_func
  77              	On_7SEG_OnePin:
  78              	.LFB19:
  25:../Hw/Hw_Lib/Hw_Segment.c **** }
  26:../Hw/Hw_Lib/Hw_Segment.c **** 
  27:../Hw/Hw_Lib/Hw_Segment.c **** SEG_DEF void On_7SEG_OnePin(uint16_t PinNum)
  28:../Hw/Hw_Lib/Hw_Segment.c **** {
  79              		.loc 1 28 0
  80              		.cfi_startproc
  81              		@ args = 0, pretend = 0, frame = 0
  82              		@ frame_needed = 0, uses_anonymous_args = 0
  83              		@ link register save eliminated.
  84              	.LVL0:
  29:../Hw/Hw_Lib/Hw_Segment.c ****     GPIO_7_SEG->BRR |= PinNum;
  85              		.loc 1 29 0
  86 0000 024A     		ldr	r2, .L8
  87 0002 5369     		ldr	r3, [r2, #20]
  88 0004 1843     		orrs	r0, r0, r3
  89              	.LVL1:
  90 0006 5061     		str	r0, [r2, #20]
  91 0008 7047     		bx	lr
  92              	.L9:
  93 000a 00BF     		.align	2
  94              	.L8:
  95 000c 00100140 		.word	1073811456
  96              		.cfi_endproc
  97              	.LFE19:
  99              		.section	.text.Off_7SEG_OnePin,"ax",%progbits
 100              		.align	2
 101              		.global	Off_7SEG_OnePin
 102              		.thumb
 103              		.thumb_func
 105              	Off_7SEG_OnePin:
 106              	.LFB20:
  30:../Hw/Hw_Lib/Hw_Segment.c **** }
  31:../Hw/Hw_Lib/Hw_Segment.c **** 
  32:../Hw/Hw_Lib/Hw_Segment.c **** SEG_DEF void Off_7SEG_OnePin(uint16_t PinNum)
  33:../Hw/Hw_Lib/Hw_Segment.c **** {
 107              		.loc 1 33 0
 108              		.cfi_startproc
 109              		@ args = 0, pretend = 0, frame = 0
 110              		@ frame_needed = 0, uses_anonymous_args = 0
 111              		@ link register save eliminated.
 112              	.LVL2:
  34:../Hw/Hw_Lib/Hw_Segment.c ****     GPIO_7_SEG->BSRR |= PinNum;
 113              		.loc 1 34 0
 114 0000 024A     		ldr	r2, .L11
 115 0002 1369     		ldr	r3, [r2, #16]
 116 0004 1843     		orrs	r0, r0, r3
 117              	.LVL3:
 118 0006 1061     		str	r0, [r2, #16]
 119 0008 7047     		bx	lr
 120              	.L12:
 121 000a 00BF     		.align	2
 122              	.L11:
 123 000c 00100140 		.word	1073811456
 124              		.cfi_endproc
 125              	.LFE20:
 127              		.section	.text.All_7SEG_On,"ax",%progbits
 128              		.align	2
 129              		.global	All_7SEG_On
 130              		.thumb
 131              		.thumb_func
 133              	All_7SEG_On:
 134              	.LFB21:
  35:../Hw/Hw_Lib/Hw_Segment.c **** }
  36:../Hw/Hw_Lib/Hw_Segment.c **** 
  37:../Hw/Hw_Lib/Hw_Segment.c **** SEG_DEF void All_7SEG_On(void)
  38:../Hw/Hw_Lib/Hw_Segment.c **** {
 135              		.loc 1 38 0
 136              		.cfi_startproc
 137              		@ args = 0, pretend = 0, frame = 0
 138              		@ frame_needed = 0, uses_anonymous_args = 0
 139              		@ link register save eliminated.
 140              	.LVL4:
 141              	.LBB52:
 142              	.LBB53:
  29:../Hw/Hw_Lib/Hw_Segment.c **** }
 143              		.loc 1 29 0
 144 0000 024A     		ldr	r2, .L14
 145 0002 5369     		ldr	r3, [r2, #20]
 146 0004 43F0FF03 		orr	r3, r3, #255
 147 0008 5361     		str	r3, [r2, #20]
 148 000a 7047     		bx	lr
 149              	.L15:
 150              		.align	2
 151              	.L14:
 152 000c 00100140 		.word	1073811456
 153              	.LBE53:
 154              	.LBE52:
 155              		.cfi_endproc
 156              	.LFE21:
 158              		.section	.text.All_7SEG_Off,"ax",%progbits
 159              		.align	2
 160              		.global	All_7SEG_Off
 161              		.thumb
 162              		.thumb_func
 164              	All_7SEG_Off:
 165              	.LFB22:
  39:../Hw/Hw_Lib/Hw_Segment.c ****     On_7SEG_OnePin(GPIO_7_SEG_A_PIN | GPIO_7_SEG_B_PIN | GPIO_7_SEG_C_PIN | GPIO_7_SEG_D_PIN | GPIO
  40:../Hw/Hw_Lib/Hw_Segment.c **** }
  41:../Hw/Hw_Lib/Hw_Segment.c **** 
  42:../Hw/Hw_Lib/Hw_Segment.c **** SEG_DEF void All_7SEG_Off(void)
  43:../Hw/Hw_Lib/Hw_Segment.c **** {
 166              		.loc 1 43 0
 167              		.cfi_startproc
 168              		@ args = 0, pretend = 0, frame = 0
 169              		@ frame_needed = 0, uses_anonymous_args = 0
 170              		@ link register save eliminated.
 171              	.LVL5:
 172              	.LBB54:
 173              	.LBB55:
  34:../Hw/Hw_Lib/Hw_Segment.c **** }
 174              		.loc 1 34 0
 175 0000 024A     		ldr	r2, .L17
 176 0002 1369     		ldr	r3, [r2, #16]
 177 0004 43F0FF03 		orr	r3, r3, #255
 178 0008 1361     		str	r3, [r2, #16]
 179 000a 7047     		bx	lr
 180              	.L18:
 181              		.align	2
 182              	.L17:
 183 000c 00100140 		.word	1073811456
 184              	.LBE55:
 185              	.LBE54:
 186              		.cfi_endproc
 187              	.LFE22:
 189              		.section	.text.Output_7SEG_Number,"ax",%progbits
 190              		.align	2
 191              		.global	Output_7SEG_Number
 192              		.thumb
 193              		.thumb_func
 195              	Output_7SEG_Number:
 196              	.LFB23:
  44:../Hw/Hw_Lib/Hw_Segment.c ****         Off_7SEG_OnePin(GPIO_7_SEG_A_PIN | GPIO_7_SEG_B_PIN | GPIO_7_SEG_C_PIN | GPIO_7_SEG_D_PIN |
  45:../Hw/Hw_Lib/Hw_Segment.c **** }
  46:../Hw/Hw_Lib/Hw_Segment.c **** 
  47:../Hw/Hw_Lib/Hw_Segment.c **** SEG_DEF void Output_7SEG_Number(unsigned int Num)
  48:../Hw/Hw_Lib/Hw_Segment.c **** {
 197              		.loc 1 48 0
 198              		.cfi_startproc
 199              		@ args = 0, pretend = 0, frame = 0
 200              		@ frame_needed = 0, uses_anonymous_args = 0
 201              	.LVL6:
 202              	.LBB56:
 203              	.LBB57:
 204              	.LBB58:
  34:../Hw/Hw_Lib/Hw_Segment.c **** }
 205              		.loc 1 34 0
 206 0000 274A     		ldr	r2, .L35
 207              	.LBE58:
 208              	.LBE57:
 209              	.LBE56:
 210              		.loc 1 48 0
 211 0002 08B5     		push	{r3, lr}
 212              	.LCFI0:
 213              		.cfi_def_cfa_offset 8
 214              		.cfi_offset 3, -8
 215              		.cfi_offset 14, -4
 216              	.LBB61:
 217              	.LBB60:
 218              	.LBB59:
  34:../Hw/Hw_Lib/Hw_Segment.c **** }
 219              		.loc 1 34 0
 220 0004 1369     		ldr	r3, [r2, #16]
 221 0006 43F0FF03 		orr	r3, r3, #255
 222 000a 1361     		str	r3, [r2, #16]
 223              	.LBE59:
 224              	.LBE60:
 225              	.LBE61:
  49:../Hw/Hw_Lib/Hw_Segment.c ****     All_7SEG_Off();
  50:../Hw/Hw_Lib/Hw_Segment.c ****     switch(Num)
 226              		.loc 1 50 0
 227 000c 0928     		cmp	r0, #9
 228 000e 42D8     		bhi	.L20
 229 0010 DFE800F0 		tbb	[pc, r0]
 230              	.L22:
 231 0014 0B       		.byte	(.L21-.L22)/2
 232 0015 11       		.byte	(.L23-.L22)/2
 233 0016 17       		.byte	(.L24-.L22)/2
 234 0017 1D       		.byte	(.L25-.L22)/2
 235 0018 23       		.byte	(.L26-.L22)/2
 236 0019 29       		.byte	(.L27-.L22)/2
 237 001a 2F       		.byte	(.L28-.L22)/2
 238 001b 35       		.byte	(.L29-.L22)/2
 239 001c 3B       		.byte	(.L30-.L22)/2
 240 001d 05       		.byte	(.L31-.L22)/2
 241              		.p2align 1
 242              	.L31:
 243              	.LVL7:
 244              	.LBB62:
 245              	.LBB63:
  29:../Hw/Hw_Lib/Hw_Segment.c **** }
 246              		.loc 1 29 0
 247 001e 204A     		ldr	r2, .L35
 248 0020 5369     		ldr	r3, [r2, #20]
 249 0022 43F0AF03 		orr	r3, r3, #175
 250 0026 5361     		str	r3, [r2, #20]
 251 0028 08BD     		pop	{r3, pc}
 252              	.LVL8:
 253              	.L21:
 254              	.LBE63:
 255              	.LBE62:
 256              	.LBB64:
 257              	.LBB65:
 258 002a 1D4A     		ldr	r2, .L35
 259 002c 5369     		ldr	r3, [r2, #20]
 260 002e 43F09F03 		orr	r3, r3, #159
 261 0032 5361     		str	r3, [r2, #20]
 262 0034 08BD     		pop	{r3, pc}
 263              	.LVL9:
 264              	.L23:
 265              	.LBE65:
 266              	.LBE64:
 267              	.LBB66:
 268              	.LBB67:
 269 0036 1A4A     		ldr	r2, .L35
 270 0038 5369     		ldr	r3, [r2, #20]
 271 003a 43F00603 		orr	r3, r3, #6
 272 003e 5361     		str	r3, [r2, #20]
 273 0040 08BD     		pop	{r3, pc}
 274              	.LVL10:
 275              	.L24:
 276              	.LBE67:
 277              	.LBE66:
 278              	.LBB68:
 279              	.LBB69:
 280 0042 174A     		ldr	r2, .L35
 281 0044 5369     		ldr	r3, [r2, #20]
 282 0046 43F09B03 		orr	r3, r3, #155
 283 004a 5361     		str	r3, [r2, #20]
 284 004c 08BD     		pop	{r3, pc}
 285              	.LVL11:
 286              	.L25:
 287              	.LBE69:
 288              	.LBE68:
 289              	.LBB70:
 290              	.LBB71:
 291 004e 144A     		ldr	r2, .L35
 292 0050 5369     		ldr	r3, [r2, #20]
 293 0052 43F08F03 		orr	r3, r3, #143
 294 0056 5361     		str	r3, [r2, #20]
 295 0058 08BD     		pop	{r3, pc}
 296              	.LVL12:
 297              	.L26:
 298              	.LBE71:
 299              	.LBE70:
 300              	.LBB72:
 301              	.LBB73:
 302 005a 114A     		ldr	r2, .L35
 303 005c 5369     		ldr	r3, [r2, #20]
 304 005e 43F0A603 		orr	r3, r3, #166
 305 0062 5361     		str	r3, [r2, #20]
 306 0064 08BD     		pop	{r3, pc}
 307              	.LVL13:
 308              	.L27:
 309              	.LBE73:
 310              	.LBE72:
 311              	.LBB74:
 312              	.LBB75:
 313 0066 0E4A     		ldr	r2, .L35
 314 0068 5369     		ldr	r3, [r2, #20]
 315 006a 43F0AD03 		orr	r3, r3, #173
 316 006e 5361     		str	r3, [r2, #20]
 317 0070 08BD     		pop	{r3, pc}
 318              	.LVL14:
 319              	.L28:
 320              	.LBE75:
 321              	.LBE74:
 322              	.LBB76:
 323              	.LBB77:
 324 0072 0B4A     		ldr	r2, .L35
 325 0074 5369     		ldr	r3, [r2, #20]
 326 0076 43F0BD03 		orr	r3, r3, #189
 327 007a 5361     		str	r3, [r2, #20]
 328 007c 08BD     		pop	{r3, pc}
 329              	.LVL15:
 330              	.L29:
 331              	.LBE77:
 332              	.LBE76:
 333              	.LBB78:
 334              	.LBB79:
 335 007e 084A     		ldr	r2, .L35
 336 0080 5369     		ldr	r3, [r2, #20]
 337 0082 43F02703 		orr	r3, r3, #39
 338 0086 5361     		str	r3, [r2, #20]
 339 0088 08BD     		pop	{r3, pc}
 340              	.LVL16:
 341              	.L30:
 342              	.LBE79:
 343              	.LBE78:
 344              	.LBB80:
 345              	.LBB81:
 346 008a 054A     		ldr	r2, .L35
 347 008c 5369     		ldr	r3, [r2, #20]
 348 008e 43F0BF03 		orr	r3, r3, #191
 349 0092 5361     		str	r3, [r2, #20]
 350 0094 08BD     		pop	{r3, pc}
 351              	.LVL17:
 352              	.L20:
 353              	.LBE81:
 354              	.LBE80:
  51:../Hw/Hw_Lib/Hw_Segment.c ****     {
  52:../Hw/Hw_Lib/Hw_Segment.c ****         case 0:
  53:../Hw/Hw_Lib/Hw_Segment.c ****             On_7SEG_OnePin(GPIO_7_SEG_A_PIN | GPIO_7_SEG_B_PIN | GPIO_7_SEG_C_PIN | GPIO_7_SEG_D_PI
  54:../Hw/Hw_Lib/Hw_Segment.c ****         break;
  55:../Hw/Hw_Lib/Hw_Segment.c ****         case 1:
  56:../Hw/Hw_Lib/Hw_Segment.c ****             On_7SEG_OnePin(GPIO_7_SEG_B_PIN | GPIO_7_SEG_C_PIN);
  57:../Hw/Hw_Lib/Hw_Segment.c ****         break;
  58:../Hw/Hw_Lib/Hw_Segment.c ****         case 2:
  59:../Hw/Hw_Lib/Hw_Segment.c ****             On_7SEG_OnePin(GPIO_7_SEG_A_PIN | GPIO_7_SEG_B_PIN | GPIO_7_SEG_D_PIN | GPIO_7_SEG_E_PI
  60:../Hw/Hw_Lib/Hw_Segment.c ****         break;
  61:../Hw/Hw_Lib/Hw_Segment.c ****         case 3:
  62:../Hw/Hw_Lib/Hw_Segment.c ****             On_7SEG_OnePin(GPIO_7_SEG_A_PIN | GPIO_7_SEG_B_PIN | GPIO_7_SEG_D_PIN | GPIO_7_SEG_C_PI
  63:../Hw/Hw_Lib/Hw_Segment.c ****         break;
  64:../Hw/Hw_Lib/Hw_Segment.c ****         case 4:
  65:../Hw/Hw_Lib/Hw_Segment.c ****             On_7SEG_OnePin(GPIO_7_SEG_B_PIN | GPIO_7_SEG_C_PIN | GPIO_7_SEG_F_PIN | GPIO_7_SEG_G_PI
  66:../Hw/Hw_Lib/Hw_Segment.c ****         break;
  67:../Hw/Hw_Lib/Hw_Segment.c ****         case 5:
  68:../Hw/Hw_Lib/Hw_Segment.c ****             On_7SEG_OnePin(GPIO_7_SEG_A_PIN | GPIO_7_SEG_C_PIN | GPIO_7_SEG_D_PIN | GPIO_7_SEG_F_PI
  69:../Hw/Hw_Lib/Hw_Segment.c ****         break;
  70:../Hw/Hw_Lib/Hw_Segment.c ****         case 6:
  71:../Hw/Hw_Lib/Hw_Segment.c ****             On_7SEG_OnePin(GPIO_7_SEG_A_PIN | GPIO_7_SEG_C_PIN | GPIO_7_SEG_D_PIN | GPIO_7_SEG_E_PI
  72:../Hw/Hw_Lib/Hw_Segment.c ****         break;
  73:../Hw/Hw_Lib/Hw_Segment.c ****         case 7:
  74:../Hw/Hw_Lib/Hw_Segment.c ****             On_7SEG_OnePin(GPIO_7_SEG_A_PIN | GPIO_7_SEG_B_PIN | GPIO_7_SEG_C_PIN | GPIO_7_SEG_F_PI
  75:../Hw/Hw_Lib/Hw_Segment.c ****         break;
  76:../Hw/Hw_Lib/Hw_Segment.c ****         case 8:
  77:../Hw/Hw_Lib/Hw_Segment.c ****             On_7SEG_OnePin(GPIO_7_SEG_A_PIN | GPIO_7_SEG_B_PIN | GPIO_7_SEG_C_PIN | GPIO_7_SEG_D_PI
  78:../Hw/Hw_Lib/Hw_Segment.c ****         break;
  79:../Hw/Hw_Lib/Hw_Segment.c ****         case 9:
  80:../Hw/Hw_Lib/Hw_Segment.c ****             On_7SEG_OnePin(GPIO_7_SEG_A_PIN | GPIO_7_SEG_B_PIN | GPIO_7_SEG_C_PIN | GPIO_7_SEG_D_PI
  81:../Hw/Hw_Lib/Hw_Segment.c ****         break;
  82:../Hw/Hw_Lib/Hw_Segment.c ****         default:
  83:../Hw/Hw_Lib/Hw_Segment.c ****             printf("not number\n");
 355              		.loc 1 83 0
 356 0096 0348     		ldr	r0, .L35+4
 357              	.LVL18:
 358 0098 034B     		ldr	r3, .L35+8
 359 009a 9847     		blx	r3
 360              	.LVL19:
 361 009c 08BD     		pop	{r3, pc}
 362              	.L36:
 363 009e 00BF     		.align	2
 364              	.L35:
 365 00a0 00100140 		.word	1073811456
 366 00a4 00000000 		.word	.LC0
 367 00a8 00000000 		.word	printf
 368              		.cfi_endproc
 369              	.LFE23:
 371              		.section	.text.Seven_SEG_TEST,"ax",%progbits
 372              		.align	2
 373              		.global	Seven_SEG_TEST
 374              		.thumb
 375              		.thumb_func
 377              	Seven_SEG_TEST:
 378              	.LFB24:
  84:../Hw/Hw_Lib/Hw_Segment.c ****         break;
  85:../Hw/Hw_Lib/Hw_Segment.c ****     }
  86:../Hw/Hw_Lib/Hw_Segment.c **** }
  87:../Hw/Hw_Lib/Hw_Segment.c **** SEG_DEF void Seven_SEG_TEST(void)
  88:../Hw/Hw_Lib/Hw_Segment.c **** {
 379              		.loc 1 88 0
 380              		.cfi_startproc
 381              		@ args = 0, pretend = 0, frame = 8
 382              		@ frame_needed = 0, uses_anonymous_args = 0
 383 0000 F0B5     		push	{r4, r5, r6, r7, lr}
 384              	.LCFI1:
 385              		.cfi_def_cfa_offset 20
 386              		.cfi_offset 4, -20
 387              		.cfi_offset 5, -16
 388              		.cfi_offset 6, -12
 389              		.cfi_offset 7, -8
 390              		.cfi_offset 14, -4
  89:../Hw/Hw_Lib/Hw_Segment.c ****     GPIO_InitTypeDef GPIO_InitStructure;
  90:../Hw/Hw_Lib/Hw_Segment.c ****     int i;
  91:../Hw/Hw_Lib/Hw_Segment.c ****     printf("Seven Segment Test\n");
  92:../Hw/Hw_Lib/Hw_Segment.c ****     RCC_APB2PeriphClockCmd(RCC_APB2Periph_GPIOC, ENABLE);
  93:../Hw/Hw_Lib/Hw_Segment.c ****     
  94:../Hw/Hw_Lib/Hw_Segment.c ****     GPIO_InitStructure.GPIO_Pin = GPIO_7_SEG_POWER_PIN | GPIO_7_SEG_A_PIN | GPIO_7_SEG_B_PIN | GPIO
 391              		.loc 1 94 0
 392 0002 40F2FF16 		movw	r6, #511
  95:../Hw/Hw_Lib/Hw_Segment.c ****     GPIO_InitStructure.GPIO_Speed = GPIO_Speed_50MHz;
  96:../Hw/Hw_Lib/Hw_Segment.c ****     GPIO_InitStructure.GPIO_Mode = GPIO_Mode_Out_PP;
  97:../Hw/Hw_Lib/Hw_Segment.c ****     GPIO_Init(GPIO_7_SEG, &GPIO_InitStructure);
 393              		.loc 1 97 0
 394 0006 284D     		ldr	r5, .L41
  88:../Hw/Hw_Lib/Hw_Segment.c ****     GPIO_InitTypeDef GPIO_InitStructure;
 395              		.loc 1 88 0
 396 0008 83B0     		sub	sp, sp, #12
 397              	.LCFI2:
 398              		.cfi_def_cfa_offset 32
  91:../Hw/Hw_Lib/Hw_Segment.c ****     RCC_APB2PeriphClockCmd(RCC_APB2Periph_GPIOC, ENABLE);
 399              		.loc 1 91 0
 400 000a 2848     		ldr	r0, .L41+4
 401 000c 284B     		ldr	r3, .L41+8
 402 000e 9847     		blx	r3
 403              	.LVL20:
  92:../Hw/Hw_Lib/Hw_Segment.c ****     
 404              		.loc 1 92 0
 405 0010 1020     		movs	r0, #16
 406 0012 0121     		movs	r1, #1
 407 0014 274B     		ldr	r3, .L41+12
 408 0016 9847     		blx	r3
 409              	.LVL21:
  95:../Hw/Hw_Lib/Hw_Segment.c ****     GPIO_InitStructure.GPIO_Mode = GPIO_Mode_Out_PP;
 410              		.loc 1 95 0
 411 0018 0324     		movs	r4, #3
  96:../Hw/Hw_Lib/Hw_Segment.c ****     GPIO_Init(GPIO_7_SEG, &GPIO_InitStructure);
 412              		.loc 1 96 0
 413 001a 1022     		movs	r2, #16
 414              		.loc 1 97 0
 415 001c 01A9     		add	r1, sp, #4
 416 001e 2846     		mov	r0, r5
 417 0020 254B     		ldr	r3, .L41+16
  96:../Hw/Hw_Lib/Hw_Segment.c ****     GPIO_Init(GPIO_7_SEG, &GPIO_InitStructure);
 418              		.loc 1 96 0
 419 0022 8DF80720 		strb	r2, [sp, #7]
  94:../Hw/Hw_Lib/Hw_Segment.c ****     GPIO_InitStructure.GPIO_Speed = GPIO_Speed_50MHz;
 420              		.loc 1 94 0
 421 0026 ADF80460 		strh	r6, [sp, #4]	@ movhi
  95:../Hw/Hw_Lib/Hw_Segment.c ****     GPIO_InitStructure.GPIO_Mode = GPIO_Mode_Out_PP;
 422              		.loc 1 95 0
 423 002a 8DF80640 		strb	r4, [sp, #6]
 424              		.loc 1 97 0
 425 002e 9847     		blx	r3
 426              	.LVL22:
 427              	.LBB82:
 428              	.LBB83:
  19:../Hw/Hw_Lib/Hw_Segment.c **** }
 429              		.loc 1 19 0
 430 0030 6B69     		ldr	r3, [r5, #20]
 431              	.LBE83:
 432              	.LBE82:
  98:../Hw/Hw_Lib/Hw_Segment.c **** 
  99:../Hw/Hw_Lib/Hw_Segment.c ****     Power_SEG_On();
 100:../Hw/Hw_Lib/Hw_Segment.c ****     Hw_1_second();
 433              		.loc 1 100 0
 434 0032 224E     		ldr	r6, .L41+20
 435              	.LBB85:
 436              	.LBB84:
  19:../Hw/Hw_Lib/Hw_Segment.c **** }
 437              		.loc 1 19 0
 438 0034 43F48073 		orr	r3, r3, #256
 439 0038 6B61     		str	r3, [r5, #20]
 440              	.LBE84:
 441              	.LBE85:
 442              		.loc 1 100 0
 443 003a B047     		blx	r6
 444              	.LVL23:
 445              	.LBB86:
 446              	.LBB87:
 447              	.LBB88:
  34:../Hw/Hw_Lib/Hw_Segment.c **** }
 448              		.loc 1 34 0
 449 003c 2B69     		ldr	r3, [r5, #16]
 450 003e 204F     		ldr	r7, .L41+24
 451 0040 43F0FF03 		orr	r3, r3, #255
 452 0044 2B61     		str	r3, [r5, #16]
 453              	.LVL24:
 454              	.LBE88:
 455              	.LBE87:
 456              	.LBE86:
 457              	.LBB89:
 458              	.LBB90:
  29:../Hw/Hw_Lib/Hw_Segment.c **** }
 459              		.loc 1 29 0
 460 0046 6B69     		ldr	r3, [r5, #20]
 461              	.LBE90:
 462              	.LBE89:
 101:../Hw/Hw_Lib/Hw_Segment.c **** 
 102:../Hw/Hw_Lib/Hw_Segment.c ****     All_7SEG_Off();
 103:../Hw/Hw_Lib/Hw_Segment.c ****     On_7SEG_OnePin(GPIO_7_SEG_A_PIN);
 104:../Hw/Hw_Lib/Hw_Segment.c ****     Hw_1_second();
 105:../Hw/Hw_Lib/Hw_Segment.c ****     On_7SEG_OnePin(GPIO_7_SEG_B_PIN);
 106:../Hw/Hw_Lib/Hw_Segment.c ****     Hw_1_second();
 107:../Hw/Hw_Lib/Hw_Segment.c ****     On_7SEG_OnePin(GPIO_7_SEG_C_PIN);
 108:../Hw/Hw_Lib/Hw_Segment.c ****     Hw_1_second();
 109:../Hw/Hw_Lib/Hw_Segment.c ****     On_7SEG_OnePin(GPIO_7_SEG_D_PIN);
 110:../Hw/Hw_Lib/Hw_Segment.c ****     Hw_1_second();
 111:../Hw/Hw_Lib/Hw_Segment.c ****     On_7SEG_OnePin(GPIO_7_SEG_E_PIN);
 112:../Hw/Hw_Lib/Hw_Segment.c ****     Hw_1_second();
 113:../Hw/Hw_Lib/Hw_Segment.c ****     On_7SEG_OnePin(GPIO_7_SEG_F_PIN);
 114:../Hw/Hw_Lib/Hw_Segment.c ****     Hw_1_second();
 115:../Hw/Hw_Lib/Hw_Segment.c ****     On_7SEG_OnePin(GPIO_7_SEG_G_PIN);
 116:../Hw/Hw_Lib/Hw_Segment.c ****     Hw_1_second();
 117:../Hw/Hw_Lib/Hw_Segment.c ****     On_7SEG_OnePin(GPIO_7_SEG_DP_PIN);
 118:../Hw/Hw_Lib/Hw_Segment.c ****     Hw_1_second();
 119:../Hw/Hw_Lib/Hw_Segment.c **** 
 120:../Hw/Hw_Lib/Hw_Segment.c ****     for(i = 0; i < 10; i++)
 463              		.loc 1 120 0
 464 0048 0024     		movs	r4, #0
 465              	.LBB92:
 466              	.LBB91:
  29:../Hw/Hw_Lib/Hw_Segment.c **** }
 467              		.loc 1 29 0
 468 004a 43F00103 		orr	r3, r3, #1
 469 004e 6B61     		str	r3, [r5, #20]
 470              	.LBE91:
 471              	.LBE92:
 104:../Hw/Hw_Lib/Hw_Segment.c ****     On_7SEG_OnePin(GPIO_7_SEG_B_PIN);
 472              		.loc 1 104 0
 473 0050 B047     		blx	r6
 474              	.LVL25:
 475              	.LBB93:
 476              	.LBB94:
  29:../Hw/Hw_Lib/Hw_Segment.c **** }
 477              		.loc 1 29 0
 478 0052 6B69     		ldr	r3, [r5, #20]
 479 0054 43F00203 		orr	r3, r3, #2
 480 0058 6B61     		str	r3, [r5, #20]
 481              	.LBE94:
 482              	.LBE93:
 106:../Hw/Hw_Lib/Hw_Segment.c ****     On_7SEG_OnePin(GPIO_7_SEG_C_PIN);
 483              		.loc 1 106 0
 484 005a B047     		blx	r6
 485              	.LVL26:
 486              	.LBB95:
 487              	.LBB96:
  29:../Hw/Hw_Lib/Hw_Segment.c **** }
 488              		.loc 1 29 0
 489 005c 6B69     		ldr	r3, [r5, #20]
 490 005e 43F00403 		orr	r3, r3, #4
 491 0062 6B61     		str	r3, [r5, #20]
 492              	.LBE96:
 493              	.LBE95:
 108:../Hw/Hw_Lib/Hw_Segment.c ****     On_7SEG_OnePin(GPIO_7_SEG_D_PIN);
 494              		.loc 1 108 0
 495 0064 B047     		blx	r6
 496              	.LVL27:
 497              	.LBB97:
 498              	.LBB98:
  29:../Hw/Hw_Lib/Hw_Segment.c **** }
 499              		.loc 1 29 0
 500 0066 6B69     		ldr	r3, [r5, #20]
 501 0068 43F00803 		orr	r3, r3, #8
 502 006c 6B61     		str	r3, [r5, #20]
 503              	.LBE98:
 504              	.LBE97:
 110:../Hw/Hw_Lib/Hw_Segment.c ****     On_7SEG_OnePin(GPIO_7_SEG_E_PIN);
 505              		.loc 1 110 0
 506 006e B047     		blx	r6
 507              	.LVL28:
 508              	.LBB99:
 509              	.LBB100:
  29:../Hw/Hw_Lib/Hw_Segment.c **** }
 510              		.loc 1 29 0
 511 0070 6B69     		ldr	r3, [r5, #20]
 512 0072 43F01003 		orr	r3, r3, #16
 513 0076 6B61     		str	r3, [r5, #20]
 514              	.LBE100:
 515              	.LBE99:
 112:../Hw/Hw_Lib/Hw_Segment.c ****     On_7SEG_OnePin(GPIO_7_SEG_F_PIN);
 516              		.loc 1 112 0
 517 0078 B047     		blx	r6
 518              	.LVL29:
 519              	.LBB101:
 520              	.LBB102:
  29:../Hw/Hw_Lib/Hw_Segment.c **** }
 521              		.loc 1 29 0
 522 007a 6B69     		ldr	r3, [r5, #20]
 523 007c 43F02003 		orr	r3, r3, #32
 524 0080 6B61     		str	r3, [r5, #20]
 525              	.LBE102:
 526              	.LBE101:
 114:../Hw/Hw_Lib/Hw_Segment.c ****     On_7SEG_OnePin(GPIO_7_SEG_G_PIN);
 527              		.loc 1 114 0
 528 0082 B047     		blx	r6
 529              	.LVL30:
 530              	.LBB103:
 531              	.LBB104:
  29:../Hw/Hw_Lib/Hw_Segment.c **** }
 532              		.loc 1 29 0
 533 0084 6B69     		ldr	r3, [r5, #20]
 534 0086 43F08003 		orr	r3, r3, #128
 535 008a 6B61     		str	r3, [r5, #20]
 536              	.LBE104:
 537              	.LBE103:
 116:../Hw/Hw_Lib/Hw_Segment.c ****     On_7SEG_OnePin(GPIO_7_SEG_DP_PIN);
 538              		.loc 1 116 0
 539 008c B047     		blx	r6
 540              	.LVL31:
 541              	.LBB105:
 542              	.LBB106:
  29:../Hw/Hw_Lib/Hw_Segment.c **** }
 543              		.loc 1 29 0
 544 008e 6B69     		ldr	r3, [r5, #20]
 545 0090 43F04003 		orr	r3, r3, #64
 546 0094 6B61     		str	r3, [r5, #20]
 547              	.LBE106:
 548              	.LBE105:
 118:../Hw/Hw_Lib/Hw_Segment.c **** 
 549              		.loc 1 118 0
 550 0096 B047     		blx	r6
 551              	.LVL32:
 552              	.L38:
 121:../Hw/Hw_Lib/Hw_Segment.c ****     {
 122:../Hw/Hw_Lib/Hw_Segment.c ****         Output_7SEG_Number(i);
 553              		.loc 1 122 0 discriminator 3
 554 0098 2046     		mov	r0, r4
 120:../Hw/Hw_Lib/Hw_Segment.c ****     {
 555              		.loc 1 120 0 discriminator 3
 556 009a 0134     		adds	r4, r4, #1
 557              	.LVL33:
 558              		.loc 1 122 0 discriminator 3
 559 009c B847     		blx	r7
 560              	.LVL34:
 123:../Hw/Hw_Lib/Hw_Segment.c ****         Hw_1_second();
 561              		.loc 1 123 0 discriminator 3
 562 009e B047     		blx	r6
 563              	.LVL35:
 120:../Hw/Hw_Lib/Hw_Segment.c ****     {
 564              		.loc 1 120 0 discriminator 3
 565 00a0 0A2C     		cmp	r4, #10
 566 00a2 F9D1     		bne	.L38
 124:../Hw/Hw_Lib/Hw_Segment.c ****     }    
 125:../Hw/Hw_Lib/Hw_Segment.c **** }
 567              		.loc 1 125 0
 568 00a4 03B0     		add	sp, sp, #12
 569              	.LCFI3:
 570              		.cfi_def_cfa_offset 20
 571              		@ sp needed
 572 00a6 F0BD     		pop	{r4, r5, r6, r7, pc}
 573              	.LVL36:
 574              	.L42:
 575              		.align	2
 576              	.L41:
 577 00a8 00100140 		.word	1073811456
 578 00ac 0C000000 		.word	.LC1
 579 00b0 00000000 		.word	printf
 580 00b4 00000000 		.word	RCC_APB2PeriphClockCmd
 581 00b8 00000000 		.word	GPIO_Init
 582 00bc 00000000 		.word	Hw_1_second
 583 00c0 00000000 		.word	Output_7SEG_Number
 584              		.cfi_endproc
 585              	.LFE24:
 587              		.section	.data.ADCPrescTable,"aw",%progbits
 588              		.align	2
 591              	ADCPrescTable:
 592 0000 02       		.byte	2
 593 0001 04       		.byte	4
 594 0002 06       		.byte	6
 595 0003 08       		.byte	8
 596              		.section	.bss.count_sys,"aw",%nobits
 599              	count_sys:
 600 0000 00       		.space	1
 601              		.section	.rodata.str1.4,"aMS",%progbits,1
 602              		.align	2
 603              	.LC0:
 604 0000 6E6F7420 		.ascii	"not number\012\000"
 604      6E756D62 
 604      65720A00 
 605              	.LC1:
 606 000c 53657665 		.ascii	"Seven Segment Test\012\000"
 606      6E205365 
 606      676D656E 
 606      74205465 
 606      73740A00 
 607              		.section	.data.APBAHBPrescTable,"aw",%progbits
 608              		.align	2
 611              	APBAHBPrescTable:
 612 0000 00       		.byte	0
 613 0001 00       		.byte	0
 614 0002 00       		.byte	0
 615 0003 00       		.byte	0
 616 0004 01       		.byte	1
 617 0005 02       		.byte	2
 618 0006 03       		.byte	3
 619 0007 04       		.byte	4
 620 0008 01       		.byte	1
 621 0009 02       		.byte	2
 622 000a 03       		.byte	3
 623 000b 04       		.byte	4
 624 000c 06       		.byte	6
 625 000d 07       		.byte	7
 626 000e 08       		.byte	8
 627 000f 09       		.byte	9
 628              		.text
 629              	.Letext0:
 630              		.file 2 "c:\\program files (x86)\\gnu tools arm embedded\\4.9 2015q1\\arm-none-eabi\\include\\mach
 631              		.file 3 "c:\\program files (x86)\\gnu tools arm embedded\\4.9 2015q1\\arm-none-eabi\\include\\stdi
 632              		.file 4 "../HW/Hw_Core/Hw_Reg.h"
 633              		.file 5 "../HW/Hw_Core/Hw_Rcc.h"
 634              		.file 6 "../HW/Hw_Core/Hw_Systick.h"